target datalayout = "e-m:e-p270:32:32-p271:32:32-p272:64:64-i64:64-i128:128-f80:128-n8:16:32:64-S128"
target triple = "x86_64-pc-linux-gnu"

%struct.darktable_t = type { %struct.dt_codepath_t, i32, i32, ptr, ptr, ptr, ptr, ptr, ptr, ptr, ptr, ptr, ptr, ptr, ptr, ptr, ptr, ptr, ptr, ptr, ptr, ptr, ptr, ptr, ptr, ptr, ptr, ptr, ptr, ptr, [64 x %struct.dt_pthread_mutex_t], %struct.dt_pthread_mutex_t, %struct.dt_pthread_mutex_t, %struct.dt_pthread_mutex_t, %struct.dt_pthread_mutex_t, %struct.dt_pthread_mutex_t, ptr, ptr, ptr, ptr, ptr, ptr, ptr, ptr, ptr, ptr, ptr, ptr, ptr, %struct.dt_lua_state_t, ptr, double, ptr, i32, [47 x i32], i32, i32, ptr, ptr, %struct.dt_sys_resources_t, %struct.dt_backthumb_t, %struct.dt_gimp_t }
%struct.dt_codepath_t = type { i8, [3 x i8] }
%struct.dt_pthread_mutex_t = type { %union.pthread_mutex_t }
%union.pthread_mutex_t = type { %struct.__pthread_mutex_s }
%struct.__pthread_mutex_s = type { i32, i32, i32, i32, i32, i16, i16, %struct.__pthread_internal_list }
%struct.__pthread_internal_list = type { ptr, ptr }
%struct.dt_lua_state_t = type { i32 }
%struct.dt_sys_resources_t = type { i64, i64, ptr, ptr, i32 }
%struct.dt_backthumb_t = type { double, double, i32, i32, i32, i32 }
%struct.dt_gimp_t = type { i32, ptr, ptr, i32, i32 }
%struct._GdkRGBA = type { double, double, double, double }
%struct._DtBauhausWidget = type { %struct._GtkDrawingArea, i32, ptr, ptr, i32, [256 x i8], i32, ptr, i32, ptr, ptr, i32, ptr, i32, i32, i32, %struct._GtkBorder, %struct._GtkBorder, i32, %union.dt_bauhaus_data_t }
%struct._GtkDrawingArea = type { %struct._GtkWidget, ptr }
%struct._GtkWidget = type { %struct._GObject, ptr }
%struct._GObject = type { %struct._GTypeInstance, i32, ptr }
%struct._GTypeInstance = type { ptr }
%struct._GtkBorder = type { i16, i16, i16, i16 }
%union.dt_bauhaus_data_t = type { %struct.dt_bauhaus_slider_data_t }
%struct.dt_bauhaus_slider_data_t = type { float, float, float, float, float, float, float, float, float, float, i32, ptr, i32, ptr, i8, ptr, float, float, i8, i32, ptr }
%struct.dt_gui_gtk_t = type { ptr, %struct.dt_gui_widgets_t, %struct.dt_gui_scrollbars_t, i32, ptr, i32, [39 x %struct._GdkRGBA], i32, i32, i32, i32, i32, double, double, double, double, ptr, double, double, double, double, i32, i32, [4096 x i8], i32, i32, i32, %struct.dt_pthread_mutex_t }
%struct.dt_gui_widgets_t = type { ptr, ptr, ptr, ptr, i32, i32, i32 }
%struct.dt_gui_scrollbars_t = type { ptr, ptr, i32 }
%struct.dt_bauhaus_t = type { ptr, %struct.dt_bauhaus_popup_t, ptr, float, float, i32, i32, float, [180 x i8], i32, i32, [2 x i32], i32, ptr, ptr, float, float, float, float, float, ptr, ptr, i32, i32, i32, %struct._GdkRGBA, %struct._GdkRGBA, %struct._GdkRGBA, %struct._GdkRGBA, %struct._GdkRGBA, %struct._GdkRGBA, %struct._GdkRGBA, %struct._GdkRGBA, %struct._GdkRGBA, %struct._GdkRGBA, %struct._GdkRGBA, %struct._GdkRGBA, %struct._GdkRGBA, %struct._GdkRGBA, %struct._GdkRGBA, [3 x %struct._GdkRGBA], [5 x %struct._GdkRGBA] }
%struct.dt_bauhaus_popup_t = type { ptr, ptr, %struct._GtkBorder, %struct._cairo_rectangle_int, i32, i32, i32 }
%struct._cairo_rectangle_int = type { i32, i32, i32, i32 }

@darktable = external global %struct.darktable_t, align 8

; Function Attrs: nounwind uwtable
define internal void @_slider_set_normalized(ptr noundef %0, float noundef %1) #0 {
  %3 = alloca ptr, align 8
  %4 = alloca float, align 4
  %5 = alloca ptr, align 8
  %6 = alloca float, align 4
  %7 = alloca float, align 4
  store ptr %0, ptr %3, align 8, !tbaa !17
  store float %1, ptr %4, align 4, !tbaa !130
  call void @llvm.lifetime.start.p0(i64 8, ptr %5) #13
  %8 = load ptr, ptr %3, align 8, !tbaa !17
  %9 = getelementptr inbounds nuw %struct._DtBauhausWidget, ptr %8, i32 0, i32 19
  store ptr %9, ptr %5, align 8, !tbaa !140
  call void @llvm.lifetime.start.p0(i64 4, ptr %6) #13
  %10 = load float, ptr %4, align 4, !tbaa !130
  %11 = fcmp reassoc nsz arcp contract afn ogt float %10, 1.000000e+00
  br i1 %11, label %12, label %13

12:                                               ; preds = %2
  br label %21

13:                                               ; preds = %2
  %14 = load float, ptr %4, align 4, !tbaa !130
  %15 = fcmp reassoc nsz arcp contract afn olt float %14, 0.000000e+00
  br i1 %15, label %16, label %17

16:                                               ; preds = %13
  br label %19

17:                                               ; preds = %13
  %18 = load float, ptr %4, align 4, !tbaa !130
  br label %19

19:                                               ; preds = %17, %16
  %20 = phi reassoc nsz arcp contract afn float [ 0.000000e+00, %16 ], [ %18, %17 ]
  br label %21

21:                                               ; preds = %19, %12
  %22 = phi reassoc nsz arcp contract afn float [ 1.000000e+00, %12 ], [ %20, %19 ]
  store float %22, ptr %6, align 4, !tbaa !130
  %23 = load ptr, ptr %5, align 8, !tbaa !140
  %24 = getelementptr inbounds nuw %struct.dt_bauhaus_slider_data_t, ptr %23, i32 0, i32 20
  %25 = load ptr, ptr %24, align 8, !tbaa !209
  %26 = load float, ptr %6, align 4, !tbaa !130
  %27 = call reassoc nsz arcp contract afn float %25(float noundef %26, i32 noundef 2)
  store float %27, ptr %6, align 4, !tbaa !130
  %28 = load ptr, ptr %5, align 8, !tbaa !140
  %29 = getelementptr inbounds nuw %struct.dt_bauhaus_slider_data_t, ptr %28, i32 0, i32 4
  %30 = load float, ptr %29, align 8, !tbaa !148
  %31 = load ptr, ptr %5, align 8, !tbaa !140
  %32 = getelementptr inbounds nuw %struct.dt_bauhaus_slider_data_t, ptr %31, i32 0, i32 5
  %33 = load float, ptr %32, align 4, !tbaa !147
  %34 = load ptr, ptr %5, align 8, !tbaa !140
  %35 = getelementptr inbounds nuw %struct.dt_bauhaus_slider_data_t, ptr %34, i32 0, i32 4
  %36 = load float, ptr %35, align 8, !tbaa !148
  %37 = fsub reassoc nsz arcp contract afn float %33, %36
  %38 = load float, ptr %6, align 4, !tbaa !130
  %39 = fmul reassoc nsz arcp contract afn float %37, %38
  %40 = fadd reassoc nsz arcp contract afn float %30, %39
  store float %40, ptr %6, align 4, !tbaa !130
  call void @llvm.lifetime.start.p0(i64 4, ptr %7) #13
  %41 = load ptr, ptr %5, align 8, !tbaa !140
  %42 = getelementptr inbounds nuw %struct.dt_bauhaus_slider_data_t, ptr %41, i32 0, i32 10
  %43 = load i32, ptr %42, align 8, !tbaa !146
  %44 = sitofp i32 %43 to float
  %45 = call reassoc nsz arcp contract afn float @llvm.pow.f32(float 1.000000e+01, float %44)
  %46 = load ptr, ptr %5, align 8, !tbaa !140
  %47 = getelementptr inbounds nuw %struct.dt_bauhaus_slider_data_t, ptr %46, i32 0, i32 16
  %48 = load float, ptr %47, align 8, !tbaa !149
  %49 = fmul reassoc nsz arcp contract afn float %45, %48
  store float %49, ptr %7, align 4, !tbaa !130
  %50 = load float, ptr %7, align 4, !tbaa !130
  %51 = load float, ptr %6, align 4, !tbaa !130
  %52 = fmul reassoc nsz arcp contract afn float %50, %51
  %53 = call reassoc nsz arcp contract afn float @llvm.round.f32(float %52)
  %54 = load float, ptr %7, align 4, !tbaa !130
  %55 = fdiv reassoc nsz arcp contract afn float %53, %54
  store float %55, ptr %6, align 4, !tbaa !130
  %56 = load float, ptr %6, align 4, !tbaa !130
  %57 = load ptr, ptr %5, align 8, !tbaa !140
  %58 = getelementptr inbounds nuw %struct.dt_bauhaus_slider_data_t, ptr %57, i32 0, i32 4
  %59 = load float, ptr %58, align 8, !tbaa !148
  %60 = fsub reassoc nsz arcp contract afn float %56, %59
  %61 = load ptr, ptr %5, align 8, !tbaa !140
  %62 = getelementptr inbounds nuw %struct.dt_bauhaus_slider_data_t, ptr %61, i32 0, i32 5
  %63 = load float, ptr %62, align 4, !tbaa !147
  %64 = load ptr, ptr %5, align 8, !tbaa !140
  %65 = getelementptr inbounds nuw %struct.dt_bauhaus_slider_data_t, ptr %64, i32 0, i32 4
  %66 = load float, ptr %65, align 8, !tbaa !148
  %67 = fsub reassoc nsz arcp contract afn float %63, %66
  %68 = fdiv reassoc nsz arcp contract afn float %60, %67
  store float %68, ptr %6, align 4, !tbaa !130
  %69 = load ptr, ptr %5, align 8, !tbaa !140
  %70 = getelementptr inbounds nuw %struct.dt_bauhaus_slider_data_t, ptr %69, i32 0, i32 20
  %71 = load ptr, ptr %70, align 8, !tbaa !209
  %72 = load float, ptr %6, align 4, !tbaa !130
  %73 = call reassoc nsz arcp contract afn float %71(float noundef %72, i32 noundef 1)
  %74 = load ptr, ptr %5, align 8, !tbaa !140
  %75 = getelementptr inbounds nuw %struct.dt_bauhaus_slider_data_t, ptr %74, i32 0, i32 0
  store float %73, ptr %75, align 8, !tbaa !210
  %76 = load ptr, ptr %3, align 8, !tbaa !17
  %77 = call i64 @gtk_widget_get_type() #14
  %78 = call ptr @g_type_check_instance_cast(ptr noundef %76, i64 noundef %77)
  call void @gtk_widget_queue_draw(ptr noundef %78)
  %79 = load ptr, ptr getelementptr inbounds nuw (%struct.darktable_t, ptr @darktable, i32 0, i32 17), align 8, !tbaa !78
  %80 = getelementptr inbounds nuw %struct.dt_bauhaus_t, ptr %79, i32 0, i32 0
  %81 = load ptr, ptr %80, align 8, !tbaa !104
  %82 = load ptr, ptr %3, align 8, !tbaa !17
  %83 = icmp eq ptr %81, %82
  br i1 %83, label %84, label %89

84:                                               ; preds = %21
  %85 = load ptr, ptr getelementptr inbounds nuw (%struct.darktable_t, ptr @darktable, i32 0, i32 17), align 8, !tbaa !78
  %86 = getelementptr inbounds nuw %struct.dt_bauhaus_t, ptr %85, i32 0, i32 1
  %87 = getelementptr inbounds nuw %struct.dt_bauhaus_popup_t, ptr %86, i32 0, i32 1
  %88 = load ptr, ptr %87, align 8, !tbaa !202
  call void @gtk_widget_queue_draw(ptr noundef %88)
  br label %89

89:                                               ; preds = %84, %21
  %90 = load ptr, ptr getelementptr inbounds nuw (%struct.darktable_t, ptr @darktable, i32 0, i32 14), align 8, !tbaa !33
  %91 = getelementptr inbounds nuw %struct.dt_gui_gtk_t, ptr %90, i32 0, i32 5
  %92 = load i32, ptr %91, align 8, !tbaa !255
  %93 = icmp ne i32 %92, 0
  br i1 %93, label %101, label %94

94:                                               ; preds = %89
  %95 = load ptr, ptr %5, align 8, !tbaa !140
  %96 = getelementptr inbounds nuw %struct.dt_bauhaus_slider_data_t, ptr %95, i32 0, i32 18
  %97 = load i8, ptr %96, align 8
  %98 = and i8 %97, -3
  %99 = or i8 %98, 2
  store i8 %99, ptr %96, align 8
  %100 = load ptr, ptr %3, align 8, !tbaa !17
  call void @_slider_value_change(ptr noundef %100)
  br label %101

101:                                              ; preds = %94, %89
  call void @llvm.lifetime.end.p0(i64 4, ptr %7) #13
  call void @llvm.lifetime.end.p0(i64 4, ptr %6) #13
  call void @llvm.lifetime.end.p0(i64 8, ptr %5) #13
  ret void
}