; Function Attrs: nounwind uwtable
define internal fastcc void @_slider_set_normalized(ptr noundef initializes((408, 412)) %0, float noundef %1) unnamed_addr #0 {
  %3 = getelementptr inbounds nuw i8, ptr %0, i64 408
  %4 = fcmp reassoc nsz arcp contract afn ogt float %1, 1.000000e+00
  %5 = fcmp reassoc nsz arcp contract afn olt float %1, 0.000000e+00
  %6 = select reassoc nsz arcp contract afn i1 %5, float 0.000000e+00, float %1
  %7 = select reassoc nsz arcp contract afn i1 %4, float 1.000000e+00, float %6
  %8 = getelementptr inbounds nuw i8, ptr %0, i64 512
  %9 = load ptr, ptr %8, align 8, !tbaa !142
  %10 = tail call reassoc nsz arcp contract afn float %9(float noundef %7, i32 noundef 2) #19
  %11 = getelementptr inbounds nuw i8, ptr %0, i64 424
  %12 = load float, ptr %11, align 8, !tbaa !121
  %13 = getelementptr inbounds nuw i8, ptr %0, i64 428
  %14 = load float, ptr %13, align 4, !tbaa !120
  %15 = fsub reassoc nsz arcp contract afn float %14, %12
  %16 = fmul reassoc nsz arcp contract afn float %15, %10
  %17 = fadd reassoc nsz arcp contract afn float %16, %12
  %18 = getelementptr inbounds nuw i8, ptr %0, i64 448
  %19 = load i32, ptr %18, align 8, !tbaa !119
  %20 = tail call reassoc nsz arcp contract afn float @llvm.powi.f32.i32(float 1.000000e+01, i32 %19)
  %21 = getelementptr inbounds nuw i8, ptr %0, i64 496
  %22 = load float, ptr %21, align 8, !tbaa !122
  %23 = fmul reassoc nsz arcp contract afn float %20, %22
  %24 = fmul reassoc nsz arcp contract afn float %23, %17
  %25 = tail call reassoc nsz arcp contract afn float @llvm.round.f32(float %24)
  %26 = fdiv reassoc nsz arcp contract afn float %25, %23
  %27 = fsub reassoc nsz arcp contract afn float %26, %12
  %28 = fdiv reassoc nsz arcp contract afn float %27, %15
  %29 = load ptr, ptr %8, align 8, !tbaa !142
  %30 = tail call reassoc nsz arcp contract afn float %29(float noundef %28, i32 noundef 1) #19
  store float %30, ptr %3, align 8, !tbaa !143
  %31 = tail call i64 @gtk_widget_get_type() #20
  %32 = tail call ptr @g_type_check_instance_cast(ptr noundef %0, i64 noundef %31) #19
  tail call void @gtk_widget_queue_draw(ptr noundef %32) #19
  %33 = load ptr, ptr getelementptr inbounds nuw (i8, ptr @darktable, i64 128), align 8, !tbaa !67
  %34 = load ptr, ptr %33, align 8, !tbaa !94
  %35 = icmp eq ptr %34, %0
  br i1 %35, label %36, label %39

36:                                               ; preds = %2
  %37 = getelementptr inbounds nuw i8, ptr %33, i64 16
  %38 = load ptr, ptr %37, align 8, !tbaa !168
  tail call void @gtk_widget_queue_draw(ptr noundef %38) #19
  br label %39

39:                                               ; preds = %36, %2
  %40 = load ptr, ptr getelementptr inbounds nuw (i8, ptr @darktable, i64 104), align 8, !tbaa !25
  %41 = getelementptr inbounds nuw i8, ptr %40, i64 96
  %42 = load i32, ptr %41, align 8, !tbaa !208
  %.not = icmp eq i32 %42, 0
  br i1 %.not, label %43, label %47

43:                                               ; preds = %39
  %44 = getelementptr inbounds nuw i8, ptr %0, i64 504
  %45 = load i8, ptr %44, align 8
  %46 = or i8 %45, 2
  store i8 %46, ptr %44, align 8
  tail call fastcc void @_slider_value_change(ptr noundef nonnull %0)
  br label %47

47:                                               ; preds = %43, %39
  ret void
}